; Function Attrs: mustprogress uwtable
define hidden noundef ptr @_ZN4ncnn18create_layer_naiveEPKc(ptr noundef readonly captures(none) %0) local_unnamed_addr #2 {
  br label %2

2:                                                ; preds = %7, %1
  %indvars.iv.i = phi i64 [ 0, %1 ], [ %indvars.iv.next.i, %7 ]
  %3 = getelementptr inbounds nuw [107 x %"struct.ncnn::layer_registry_entry"], ptr @_ZN4ncnnL14layer_registryE, i64 0, i64 %indvars.iv.i
  %4 = load ptr, ptr %3, align 16, !tbaa !65
  %5 = tail call i32 @strcmp(ptr noundef nonnull readonly dereferenceable(1) %0, ptr noundef nonnull dereferenceable(1) %4) #23
  %6 = icmp eq i32 %5, 0
  br i1 %6, label %_ZN4ncnn14layer_to_indexEPKc.exit, label %7

7:                                                ; preds = %2
  %indvars.iv.next.i = add nuw nsw i64 %indvars.iv.i, 1
  %exitcond.i = icmp eq i64 %indvars.iv.next.i, 107
  br i1 %exitcond.i, label %_ZN4ncnn18create_layer_naiveEi.exit, label %2, !llvm.loop !67

_ZN4ncnn14layer_to_indexEPKc.exit:                ; preds = %2
  %8 = trunc nuw nsw i64 %indvars.iv.i to i32
  %or.cond.i = icmp samesign ugt i64 %indvars.iv.i, 106
  br i1 %or.cond.i, label %_ZN4ncnn18create_layer_naiveEi.exit, label %9

9:                                                ; preds = %_ZN4ncnn14layer_to_indexEPKc.exit
  switch i32 %8, label %10 [
    i32 34, label %_ZN4ncnn18create_layer_naiveEi.exit
    i32 1, label %_ZN4ncnn18create_layer_naiveEi.exit
  ]

10:                                               ; preds = %9
  %11 = getelementptr inbounds nuw [107 x %"struct.ncnn::layer_registry_entry"], ptr @_ZN4ncnnL14layer_registryE, i64 0, i64 %indvars.iv.i, i32 1
  %12 = load ptr, ptr %11, align 8, !tbaa !68
  %13 = tail call noundef ptr %12(ptr noundef null)
  %14 = getelementptr inbounds nuw i8, ptr %13, i64 40
  store i32 %8, ptr %14, align 8, !tbaa !51
  br label %_ZN4ncnn18create_layer_naiveEi.exit

_ZN4ncnn18create_layer_naiveEi.exit:              ; preds = %7, %10, %9, %9, %_ZN4ncnn14layer_to_indexEPKc.exit
  %.0 = phi ptr [ null, %_ZN4ncnn14layer_to_indexEPKc.exit ], [ %13, %10 ], [ null, %9 ], [ null, %9 ], [ null, %7 ]
  ret ptr %.0
}